; Function Attrs: mustprogress uwtable
define void @_ZNK3nix8fetchers5Input9to_stringB5cxx11Ev(ptr dead_on_unwind noalias writable sret(%"class.std::__cxx11::basic_string") align 8 %0, ptr noundef nonnull align 8 dereferenceable(104) %1) local_unnamed_addr #5 align 2 personality ptr @__gxx_personality_v0 {
  %3 = alloca %"struct.nix::ParsedURL", align 8
  call void @_ZNK3nix8fetchers5Input5toURLEv(ptr dead_on_unwind nonnull writable sret(%"struct.nix::ParsedURL") align 8 %3, ptr noundef nonnull align 8 dereferenceable(104) %1)
  invoke void @_ZNK3nix9ParsedURL9to_stringB5cxx11Ev(ptr dead_on_unwind writable sret(%"class.std::__cxx11::basic_string") align 8 %0, ptr noundef nonnull align 8 dereferenceable(248) %3)
          to label %4 unwind label %5

4:                                                ; preds = %2
  call void @_ZN3nix9ParsedURLD2Ev(ptr noundef nonnull align 8 dereferenceable(248) %3) #27
  ret void

5:                                                ; preds = %2
  %6 = landingpad { ptr, i32 }
          cleanup
  call void @_ZN3nix9ParsedURLD2Ev(ptr noundef nonnull align 8 dereferenceable(248) %3) #27
  resume { ptr, i32 } %6
}